; Function Attrs: mustprogress nounwind uwtable
define internal fastcc void @"_ZZNK4llvm9BTFParser9symbolizeEPKNS_3BTF13BPFFieldRelocERNS_15SmallVectorImplIcEEENK3$_0clINS_13format_objectIJjEEEEEDaT_"(ptr noundef nonnull readonly align 8 captures(none) dereferenceable(32) %0, ptr noundef nonnull %1) unnamed_addr #0 align 2 {
  %3 = load ptr, ptr %0, align 8
  tail call void @_ZN4llvm15SmallVectorImplIcE10resizeImplILb0EEEvm(ptr noundef nonnull align 8 dereferenceable(24) %3, i64 noundef 0)
  %4 = getelementptr inbounds nuw i8, ptr %0, i64 8
  %5 = load ptr, ptr %4, align 8
  %6 = load ptr, ptr %5, align 8
  %7 = getelementptr inbounds nuw i8, ptr %6, i64 12
  %8 = load i32, ptr %7, align 4
  %9 = getelementptr inbounds nuw i8, ptr %0, i64 16
  %10 = load ptr, ptr %9, align 8
  tail call fastcc void @_ZL13relocKindNamejRN4llvm11raw_ostreamE(i32 noundef %8, ptr noundef nonnull align 8 dereferenceable(48) %10)
  %11 = load ptr, ptr %9, align 8
  %12 = getelementptr inbounds nuw i8, ptr %11, i64 24
  %13 = load ptr, ptr %12, align 8
  %14 = getelementptr inbounds nuw i8, ptr %11, i64 32
  %15 = load ptr, ptr %14, align 8
  %16 = ptrtoint ptr %13 to i64
  %17 = ptrtoint ptr %15 to i64
  %18 = sub i64 %16, %17
  %19 = icmp ult i64 %18, 2
  br i1 %19, label %20, label %22

20:                                               ; preds = %2
  %21 = tail call noundef nonnull align 8 dereferenceable(48) ptr @_ZN4llvm11raw_ostream5writeEPKcm(ptr noundef nonnull align 8 dereferenceable(48) %11, ptr noundef nonnull @.str.27, i64 noundef 2) #22
  br label %_ZN4llvm11raw_ostreamlsEPKc.exit

22:                                               ; preds = %2
  store i16 23328, ptr %15, align 1
  %23 = load ptr, ptr %14, align 8
  %24 = getelementptr inbounds nuw i8, ptr %23, i64 2
  store ptr %24, ptr %14, align 8
  br label %_ZN4llvm11raw_ostreamlsEPKc.exit

_ZN4llvm11raw_ostreamlsEPKc.exit:                 ; preds = %20, %22
  %.0.i.i = phi ptr [ %21, %20 ], [ %11, %22 ]
  %25 = load ptr, ptr %4, align 8
  %26 = load ptr, ptr %25, align 8
  %27 = getelementptr inbounds nuw i8, ptr %26, i64 4
  %28 = load i32, ptr %27, align 4
  %29 = zext i32 %28 to i64
  %30 = tail call noundef nonnull align 8 dereferenceable(48) ptr @_ZN4llvm11raw_ostreamlsEm(ptr noundef nonnull align 8 dereferenceable(48) %.0.i.i, i64 noundef %29) #22
  %31 = getelementptr inbounds nuw i8, ptr %30, i64 24
  %32 = load ptr, ptr %31, align 8
  %33 = getelementptr inbounds nuw i8, ptr %30, i64 32
  %34 = load ptr, ptr %33, align 8
  %35 = ptrtoint ptr %32 to i64
  %36 = ptrtoint ptr %34 to i64
  %37 = sub i64 %35, %36
  %38 = icmp ult i64 %37, 3
  br i1 %38, label %39, label %41

39:                                               ; preds = %_ZN4llvm11raw_ostreamlsEPKc.exit
  %40 = tail call noundef nonnull align 8 dereferenceable(48) ptr @_ZN4llvm11raw_ostream5writeEPKcm(ptr noundef nonnull align 8 dereferenceable(48) %30, ptr noundef nonnull @.str.60, i64 noundef 3) #22
  %.phi.trans.insert = getelementptr inbounds nuw i8, ptr %40, i64 32
  %.pre = load ptr, ptr %.phi.trans.insert, align 8
  br label %_ZN4llvm11raw_ostreamlsEPKc.exit3

41:                                               ; preds = %_ZN4llvm11raw_ostreamlsEPKc.exit
  tail call void @llvm.memcpy.p0.p0.i64(ptr noundef nonnull align 1 dereferenceable(3) %34, ptr noundef nonnull align 1 dereferenceable(3) @.str.60, i64 3, i1 false)
  %42 = load ptr, ptr %33, align 8
  %43 = getelementptr inbounds nuw i8, ptr %42, i64 3
  store ptr %43, ptr %33, align 8
  br label %_ZN4llvm11raw_ostreamlsEPKc.exit3

_ZN4llvm11raw_ostreamlsEPKc.exit3:                ; preds = %39, %41
  %44 = phi ptr [ %.pre, %39 ], [ %43, %41 ]
  %.0.i.i2 = phi ptr [ %40, %39 ], [ %30, %41 ]
  %45 = getelementptr inbounds nuw i8, ptr %0, i64 24
  %46 = load ptr, ptr %45, align 8
  %.sroa.0.0.copyload = load ptr, ptr %46, align 8
  %.sroa.2.0..sroa_idx = getelementptr inbounds nuw i8, ptr %46, i64 8
  %.sroa.2.0.copyload = load i64, ptr %.sroa.2.0..sroa_idx, align 8
  %47 = getelementptr inbounds nuw i8, ptr %.0.i.i2, i64 24
  %48 = load ptr, ptr %47, align 8
  %49 = getelementptr inbounds nuw i8, ptr %.0.i.i2, i64 32
  %50 = ptrtoint ptr %48 to i64
  %51 = ptrtoint ptr %44 to i64
  %52 = sub i64 %50, %51
  %53 = icmp ugt i64 %.sroa.2.0.copyload, %52
  br i1 %53, label %54, label %56

54:                                               ; preds = %_ZN4llvm11raw_ostreamlsEPKc.exit3
  %55 = tail call noundef nonnull align 8 dereferenceable(48) ptr @_ZN4llvm11raw_ostream5writeEPKcm(ptr noundef nonnull align 8 dereferenceable(48) %.0.i.i2, ptr noundef %.sroa.0.0.copyload, i64 noundef %.sroa.2.0.copyload) #22
  %.phi.trans.insert13 = getelementptr inbounds nuw i8, ptr %55, i64 32
  %.pre14 = load ptr, ptr %.phi.trans.insert13, align 8
  br label %_ZN4llvm11raw_ostreamlsENS_9StringRefE.exit

56:                                               ; preds = %_ZN4llvm11raw_ostreamlsEPKc.exit3
  %.not.i = icmp eq i64 %.sroa.2.0.copyload, 0
  br i1 %.not.i, label %_ZN4llvm11raw_ostreamlsENS_9StringRefE.exit, label %57

57:                                               ; preds = %56
  tail call void @llvm.memcpy.p0.p0.i64(ptr align 1 %44, ptr align 1 %.sroa.0.0.copyload, i64 %.sroa.2.0.copyload, i1 false)
  %58 = load ptr, ptr %49, align 8
  %59 = getelementptr inbounds i8, ptr %58, i64 %.sroa.2.0.copyload
  store ptr %59, ptr %49, align 8
  br label %_ZN4llvm11raw_ostreamlsENS_9StringRefE.exit

_ZN4llvm11raw_ostreamlsENS_9StringRefE.exit:      ; preds = %54, %56, %57
  %60 = phi ptr [ %.pre14, %54 ], [ %59, %57 ], [ %44, %56 ]
  %.0.i = phi ptr [ %55, %54 ], [ %.0.i.i2, %57 ], [ %.0.i.i2, %56 ]
  %61 = getelementptr inbounds nuw i8, ptr %.0.i, i64 24
  %62 = load ptr, ptr %61, align 8
  %63 = icmp eq ptr %62, %60
  br i1 %63, label %64, label %66

64:                                               ; preds = %_ZN4llvm11raw_ostreamlsENS_9StringRefE.exit
  %65 = tail call noundef nonnull align 8 dereferenceable(48) ptr @_ZN4llvm11raw_ostream5writeEPKcm(ptr noundef nonnull align 8 dereferenceable(48) %.0.i, ptr noundef nonnull @.str.61, i64 noundef 1) #22
  %.phi.trans.insert15 = getelementptr inbounds nuw i8, ptr %65, i64 32
  %.pre16 = load ptr, ptr %.phi.trans.insert15, align 8
  br label %_ZN4llvm11raw_ostreamlsEPKc.exit6

66:                                               ; preds = %_ZN4llvm11raw_ostreamlsENS_9StringRefE.exit
  %67 = getelementptr inbounds nuw i8, ptr %.0.i, i64 32
  store i8 39, ptr %60, align 1
  %68 = load ptr, ptr %67, align 8
  %69 = getelementptr inbounds nuw i8, ptr %68, i64 1
  store ptr %69, ptr %67, align 8
  br label %_ZN4llvm11raw_ostreamlsEPKc.exit6

_ZN4llvm11raw_ostreamlsEPKc.exit6:                ; preds = %64, %66
  %70 = phi ptr [ %.pre16, %64 ], [ %69, %66 ]
  %.0.i.i5 = phi ptr [ %65, %64 ], [ %.0.i, %66 ]
  %71 = getelementptr inbounds nuw i8, ptr %.0.i.i5, i64 24
  %72 = load ptr, ptr %71, align 8
  %73 = ptrtoint ptr %72 to i64
  %74 = ptrtoint ptr %70 to i64
  %75 = sub i64 %73, %74
  %76 = icmp ult i64 %75, 2
  br i1 %76, label %77, label %79

77:                                               ; preds = %_ZN4llvm11raw_ostreamlsEPKc.exit6
  %78 = tail call noundef nonnull align 8 dereferenceable(48) ptr @_ZN4llvm11raw_ostream5writeEPKcm(ptr noundef nonnull align 8 dereferenceable(48) %.0.i.i5, ptr noundef nonnull @.str.62, i64 noundef 2) #22
  br label %_ZN4llvm11raw_ostreamlsEPKc.exit9

79:                                               ; preds = %_ZN4llvm11raw_ostreamlsEPKc.exit6
  %80 = getelementptr inbounds nuw i8, ptr %.0.i.i5, i64 32
  store i16 15392, ptr %70, align 1
  %81 = load ptr, ptr %80, align 8
  %82 = getelementptr inbounds nuw i8, ptr %81, i64 2
  store ptr %82, ptr %80, align 8
  br label %_ZN4llvm11raw_ostreamlsEPKc.exit9

_ZN4llvm11raw_ostreamlsEPKc.exit9:                ; preds = %77, %79
  %.0.i.i8 = phi ptr [ %78, %77 ], [ %.0.i.i5, %79 ]
  %83 = tail call noundef nonnull align 8 dereferenceable(48) ptr @_ZN4llvm11raw_ostreamlsERKNS_18format_object_baseE(ptr noundef nonnull align 8 dereferenceable(48) %.0.i.i8, ptr noundef nonnull align 8 dereferenceable(16) %1) #22
  %84 = getelementptr inbounds nuw i8, ptr %83, i64 24
  %85 = load ptr, ptr %84, align 8
  %86 = getelementptr inbounds nuw i8, ptr %83, i64 32
  %87 = load ptr, ptr %86, align 8
  %88 = icmp eq ptr %85, %87
  br i1 %88, label %89, label %91

89:                                               ; preds = %_ZN4llvm11raw_ostreamlsEPKc.exit9
  %90 = tail call noundef nonnull align 8 dereferenceable(48) ptr @_ZN4llvm11raw_ostream5writeEPKcm(ptr noundef nonnull align 8 dereferenceable(48) %83, ptr noundef nonnull @.str.63, i64 noundef 1) #22
  br label %_ZN4llvm11raw_ostreamlsEPKc.exit12

91:                                               ; preds = %_ZN4llvm11raw_ostreamlsEPKc.exit9
  store i8 62, ptr %87, align 1
  %92 = load ptr, ptr %86, align 8
  %93 = getelementptr inbounds nuw i8, ptr %92, i64 1
  store ptr %93, ptr %86, align 8
  br label %_ZN4llvm11raw_ostreamlsEPKc.exit12

_ZN4llvm11raw_ostreamlsEPKc.exit12:               ; preds = %89, %91
  ret void
}